target datalayout = "e-m:e-p270:32:32-p271:32:32-p272:64:64-i64:64-i128:128-f80:128-n8:16:32:64-S128"
target triple = "x86_64-pc-linux-gnu"

%"struct.icu_77::CollationData" = type <{ ptr, ptr, ptr, ptr, ptr, ptr, ptr, i32, i32, i32, i32, ptr, ptr, ptr, i32, i32, ptr, ptr, i32, [4 x i8], ptr, i32, [4 x i8] }>

; Function Attrs: mustprogress nounwind uwtable
define noundef i32 @_ZNK6icu_7713CollationData17addLowScriptRangeEPhii(ptr noundef nonnull align 8 dereferenceable(140) %0, ptr noundef %1, i32 noundef %2, i32 noundef %3) #3 align 2 {
  %5 = alloca ptr, align 8
  %6 = alloca ptr, align 8
  %7 = alloca i32, align 4
  %8 = alloca i32, align 4
  %9 = alloca i32, align 4
  %10 = alloca i32, align 4
  store ptr %0, ptr %5, align 8, !tbaa !3
  store ptr %1, ptr %6, align 8, !tbaa !57
  store i32 %2, ptr %7, align 4, !tbaa !8
  store i32 %3, ptr %8, align 4, !tbaa !8
  %11 = load ptr, ptr %5, align 8
  call void @llvm.lifetime.start.p0(i64 4, ptr %9) #7
  %12 = getelementptr inbounds nuw %"struct.icu_77::CollationData", ptr %11, i32 0, i32 17
  %13 = load ptr, ptr %12, align 8, !tbaa !38
  %14 = load i32, ptr %7, align 4, !tbaa !8
  %15 = sext i32 %14 to i64
  %16 = getelementptr inbounds i16, ptr %13, i64 %15
  %17 = load i16, ptr %16, align 2, !tbaa !35
  %18 = zext i16 %17 to i32
  store i32 %18, ptr %9, align 4, !tbaa !8
  %19 = load i32, ptr %9, align 4, !tbaa !8
  %20 = and i32 %19, 255
  %21 = load i32, ptr %8, align 4, !tbaa !8
  %22 = and i32 %21, 255
  %23 = icmp slt i32 %20, %22
  br i1 %23, label %24, label %27

24:                                               ; preds = %4
  %25 = load i32, ptr %8, align 4, !tbaa !8
  %26 = add nsw i32 %25, 256
  store i32 %26, ptr %8, align 4, !tbaa !8
  br label %27

27:                                               ; preds = %24, %4
  %28 = load i32, ptr %8, align 4, !tbaa !8
  %29 = ashr i32 %28, 8
  %30 = trunc i32 %29 to i8
  %31 = load ptr, ptr %6, align 8, !tbaa !57
  %32 = load i32, ptr %7, align 4, !tbaa !8
  %33 = sext i32 %32 to i64
  %34 = getelementptr inbounds i8, ptr %31, i64 %33
  store i8 %30, ptr %34, align 1, !tbaa !49
  call void @llvm.lifetime.start.p0(i64 4, ptr %10) #7
  %35 = getelementptr inbounds nuw %"struct.icu_77::CollationData", ptr %11, i32 0, i32 17
  %36 = load ptr, ptr %35, align 8, !tbaa !38
  %37 = load i32, ptr %7, align 4, !tbaa !8
  %38 = add nsw i32 %37, 1
  %39 = sext i32 %38 to i64
  %40 = getelementptr inbounds i16, ptr %36, i64 %39
  %41 = load i16, ptr %40, align 2, !tbaa !35
  %42 = zext i16 %41 to i32
  store i32 %42, ptr %10, align 4, !tbaa !8
  %43 = load i32, ptr %8, align 4, !tbaa !8
  %44 = and i32 %43, 65280
  %45 = load i32, ptr %10, align 4, !tbaa !8
  %46 = and i32 %45, 65280
  %47 = load i32, ptr %9, align 4, !tbaa !8
  %48 = and i32 %47, 65280
  %49 = sub nsw i32 %46, %48
  %50 = add nsw i32 %44, %49
  %51 = load i32, ptr %10, align 4, !tbaa !8
  %52 = and i32 %51, 255
  %53 = or i32 %50, %52
  store i32 %53, ptr %8, align 4, !tbaa !8
  %54 = load i32, ptr %8, align 4, !tbaa !8
  call void @llvm.lifetime.end.p0(i64 4, ptr %10) #7
  call void @llvm.lifetime.end.p0(i64 4, ptr %9) #7
  ret i32 %54
}