; Function Attrs: mustprogress nofree norecurse nosync nounwind willreturn memory(read, argmem: readwrite, inaccessiblemem: none) uwtable
define noundef i32 @_ZNK6icu_7713CollationData17addLowScriptRangeEPhii(ptr noundef nonnull readonly align 8 captures(none) dereferenceable(140) %0, ptr noundef writeonly captures(none) %1, i32 noundef %2, i32 noundef %3) local_unnamed_addr #6 align 2 {
  %5 = getelementptr inbounds nuw i8, ptr %0, i64 112
  %6 = load ptr, ptr %5, align 8, !tbaa !38
  %7 = sext i32 %2 to i64
  %8 = getelementptr inbounds i16, ptr %6, i64 %7
  %9 = load i16, ptr %8, align 2, !tbaa !29
  %10 = zext i16 %9 to i32
  %11 = and i32 %10, 255
  %12 = and i32 %3, 255
  %13 = icmp samesign ult i32 %11, %12
  %14 = add nsw i32 %3, 256
  %spec.select = select i1 %13, i32 %14, i32 %3
  %15 = lshr i32 %spec.select, 8
  %16 = trunc i32 %15 to i8
  %17 = getelementptr inbounds i8, ptr %1, i64 %7
  store i8 %16, ptr %17, align 1, !tbaa !44
  %18 = load ptr, ptr %5, align 8, !tbaa !38
  %19 = getelementptr i16, ptr %18, i64 %7
  %20 = getelementptr i8, ptr %19, i64 2
  %21 = load i16, ptr %20, align 2, !tbaa !29
  %22 = zext i16 %21 to i32
  %23 = and i32 %spec.select, 65280
  %24 = and i32 %22, 65280
  %25 = and i32 %10, 65280
  %26 = sub nsw i32 %24, %25
  %27 = add nsw i32 %26, %23
  %28 = and i32 %22, 255
  %29 = or disjoint i32 %27, %28
  ret i32 %29
}